target datalayout = "e-m:e-p270:32:32-p271:32:32-p272:64:64-i64:64-i128:128-f80:128-n8:16:32:64-S128"
target triple = "x86_64-pc-linux-gnu"

@s_Truths6Neg = internal global [6 x i64] [i64 6148914691236517205, i64 3689348814741910323, i64 1085102592571150095, i64 71777214294589695, i64 281470681808895, i64 4294967295], align 16

; Function Attrs: inlinehint nounwind uwtable
define internal i32 @Abc_TtWordNum(i32 noundef %0) #2 {
  %2 = alloca i32, align 4
  store i32 %0, ptr %2, align 4, !tbaa !10
  %3 = load i32, ptr %2, align 4, !tbaa !10
  %4 = icmp sle i32 %3, 6
  br i1 %4, label %5, label %6

5:                                                ; preds = %1
  br label %10

6:                                                ; preds = %1
  %7 = load i32, ptr %2, align 4, !tbaa !10
  %8 = sub nsw i32 %7, 6
  %9 = shl i32 1, %8
  br label %10

10:                                               ; preds = %6, %5
  %11 = phi i32 [ 1, %5 ], [ %9, %6 ]
  ret i32 %11
}

; Function Attrs: inlinehint nounwind uwtable
define internal i32 @Abc_Tt6HasVar(i64 noundef %0, i32 noundef %1) #2 {
  %3 = alloca i64, align 8
  %4 = alloca i32, align 4
  store i64 %0, ptr %3, align 8, !tbaa !3
  store i32 %1, ptr %4, align 4, !tbaa !10
  %5 = load i64, ptr %3, align 8, !tbaa !3
  %6 = load i32, ptr %4, align 4, !tbaa !10
  %7 = shl i32 1, %6
  %8 = zext i32 %7 to i64
  %9 = lshr i64 %5, %8
  %10 = load i32, ptr %4, align 4, !tbaa !10
  %11 = sext i32 %10 to i64
  %12 = getelementptr inbounds [6 x i64], ptr @s_Truths6Neg, i64 0, i64 %11
  %13 = load i64, ptr %12, align 8, !tbaa !3
  %14 = and i64 %9, %13
  %15 = load i64, ptr %3, align 8, !tbaa !3
  %16 = load i32, ptr %4, align 4, !tbaa !10
  %17 = sext i32 %16 to i64
  %18 = getelementptr inbounds [6 x i64], ptr @s_Truths6Neg, i64 0, i64 %17
  %19 = load i64, ptr %18, align 8, !tbaa !3
  %20 = and i64 %15, %19
  %21 = icmp ne i64 %14, %20
  %22 = zext i1 %21 to i32
  ret i32 %22
}

; Function Attrs: inlinehint nounwind uwtable
define internal i32 @Abc_TtHasVar(ptr noundef %0, i32 noundef %1, i32 noundef %2) #2 {
  %4 = alloca i32, align 4
  %5 = alloca ptr, align 8
  %6 = alloca i32, align 4
  %7 = alloca i32, align 4
  %8 = alloca i32, align 4
  %9 = alloca i32, align 4
  %10 = alloca i32, align 4
  %11 = alloca i32, align 4
  %12 = alloca i32, align 4
  %13 = alloca i32, align 4
  %14 = alloca ptr, align 8
  store ptr %0, ptr %5, align 8, !tbaa !7
  store i32 %1, ptr %6, align 4, !tbaa !10
  store i32 %2, ptr %7, align 4, !tbaa !10
  %15 = load i32, ptr %6, align 4, !tbaa !10
  %16 = icmp sle i32 %15, 6
  br i1 %16, label %17, label %23

17:                                               ; preds = %3
  %18 = load ptr, ptr %5, align 8, !tbaa !7
  %19 = getelementptr inbounds i64, ptr %18, i64 0
  %20 = load i64, ptr %19, align 8, !tbaa !3
  %21 = load i32, ptr %7, align 4, !tbaa !10
  %22 = call i32 @Abc_Tt6HasVar(i64 noundef %20, i32 noundef %21)
  store i32 %22, ptr %4, align 4
  br label %113

23:                                               ; preds = %3
  %24 = load i32, ptr %7, align 4, !tbaa !10
  %25 = icmp slt i32 %24, 6
  br i1 %25, label %26, label %67

26:                                               ; preds = %23
  call void @llvm.lifetime.start.p0(i64 4, ptr %8) #9
  call void @llvm.lifetime.start.p0(i64 4, ptr %9) #9
  %27 = load i32, ptr %7, align 4, !tbaa !10
  %28 = shl i32 1, %27
  store i32 %28, ptr %9, align 4, !tbaa !10
  call void @llvm.lifetime.start.p0(i64 4, ptr %10) #9
  %29 = load i32, ptr %6, align 4, !tbaa !10
  %30 = call i32 @Abc_TtWordNum(i32 noundef %29)
  store i32 %30, ptr %10, align 4, !tbaa !10
  store i32 0, ptr %8, align 4, !tbaa !10
  br label %31

31:                                               ; preds = %62, %26
  %32 = load i32, ptr %8, align 4, !tbaa !10
  %33 = load i32, ptr %10, align 4, !tbaa !10
  %34 = icmp slt i32 %32, %33
  br i1 %34, label %35, label %65

35:                                               ; preds = %31
  %36 = load ptr, ptr %5, align 8, !tbaa !7
  %37 = load i32, ptr %8, align 4, !tbaa !10
  %38 = sext i32 %37 to i64
  %39 = getelementptr inbounds i64, ptr %36, i64 %38
  %40 = load i64, ptr %39, align 8, !tbaa !3
  %41 = load i32, ptr %9, align 4, !tbaa !10
  %42 = zext i32 %41 to i64
  %43 = lshr i64 %40, %42
  %44 = load i32, ptr %7, align 4, !tbaa !10
  %45 = sext i32 %44 to i64
  %46 = getelementptr inbounds [6 x i64], ptr @s_Truths6Neg, i64 0, i64 %45
  %47 = load i64, ptr %46, align 8, !tbaa !3
  %48 = and i64 %43, %47
  %49 = load ptr, ptr %5, align 8, !tbaa !7
  %50 = load i32, ptr %8, align 4, !tbaa !10
  %51 = sext i32 %50 to i64
  %52 = getelementptr inbounds i64, ptr %49, i64 %51
  %53 = load i64, ptr %52, align 8, !tbaa !3
  %54 = load i32, ptr %7, align 4, !tbaa !10
  %55 = sext i32 %54 to i64
  %56 = getelementptr inbounds [6 x i64], ptr @s_Truths6Neg, i64 0, i64 %55
  %57 = load i64, ptr %56, align 8, !tbaa !3
  %58 = and i64 %53, %57
  %59 = icmp ne i64 %48, %58
  br i1 %59, label %60, label %61

60:                                               ; preds = %35
  store i32 1, ptr %4, align 4
  store i32 1, ptr %11, align 4
  br label %66

61:                                               ; preds = %35
  br label %62

62:                                               ; preds = %61
  %63 = load i32, ptr %8, align 4, !tbaa !10
  %64 = add nsw i32 %63, 1
  store i32 %64, ptr %8, align 4, !tbaa !10
  br label %31, !llvm.loop !20

65:                                               ; preds = %31
  store i32 0, ptr %4, align 4
  store i32 1, ptr %11, align 4
  br label %66

66:                                               ; preds = %65, %60
  call void @llvm.lifetime.end.p0(i64 4, ptr %10) #9
  call void @llvm.lifetime.end.p0(i64 4, ptr %9) #9
  call void @llvm.lifetime.end.p0(i64 4, ptr %8) #9
  br label %113

67:                                               ; preds = %23
  call void @llvm.lifetime.start.p0(i64 4, ptr %12) #9
  call void @llvm.lifetime.start.p0(i64 4, ptr %13) #9
  %68 = load i32, ptr %7, align 4, !tbaa !10
  %69 = sub nsw i32 %68, 6
  %70 = shl i32 1, %69
  store i32 %70, ptr %13, align 4, !tbaa !10
  call void @llvm.lifetime.start.p0(i64 8, ptr %14) #9
  %71 = load ptr, ptr %5, align 8, !tbaa !7
  %72 = load i32, ptr %6, align 4, !tbaa !10
  %73 = call i32 @Abc_TtWordNum(i32 noundef %72)
  %74 = sext i32 %73 to i64
  %75 = getelementptr inbounds i64, ptr %71, i64 %74
  store ptr %75, ptr %14, align 8, !tbaa !7
  br label %76

76:                                               ; preds = %105, %67
  %77 = load ptr, ptr %5, align 8, !tbaa !7
  %78 = load ptr, ptr %14, align 8, !tbaa !7
  %79 = icmp ult ptr %77, %78
  br i1 %79, label %80, label %111

80:                                               ; preds = %76
  store i32 0, ptr %12, align 4, !tbaa !10
  br label %81

81:                                               ; preds = %101, %80
  %82 = load i32, ptr %12, align 4, !tbaa !10
  %83 = load i32, ptr %13, align 4, !tbaa !10
  %84 = icmp slt i32 %82, %83
  br i1 %84, label %85, label %104

85:                                               ; preds = %81
  %86 = load ptr, ptr %5, align 8, !tbaa !7
  %87 = load i32, ptr %12, align 4, !tbaa !10
  %88 = sext i32 %87 to i64
  %89 = getelementptr inbounds i64, ptr %86, i64 %88
  %90 = load i64, ptr %89, align 8, !tbaa !3
  %91 = load ptr, ptr %5, align 8, !tbaa !7
  %92 = load i32, ptr %13, align 4, !tbaa !10
  %93 = load i32, ptr %12, align 4, !tbaa !10
  %94 = add nsw i32 %92, %93
  %95 = sext i32 %94 to i64
  %96 = getelementptr inbounds i64, ptr %91, i64 %95
  %97 = load i64, ptr %96, align 8, !tbaa !3
  %98 = icmp ne i64 %90, %97
  br i1 %98, label %99, label %100

99:                                               ; preds = %85
  store i32 1, ptr %4, align 4
  store i32 1, ptr %11, align 4
  br label %112

100:                                              ; preds = %85
  br label %101

101:                                              ; preds = %100
  %102 = load i32, ptr %12, align 4, !tbaa !10
  %103 = add nsw i32 %102, 1
  store i32 %103, ptr %12, align 4, !tbaa !10
  br label %81, !llvm.loop !21

104:                                              ; preds = %81
  br label %105

105:                                              ; preds = %104
  %106 = load i32, ptr %13, align 4, !tbaa !10
  %107 = mul nsw i32 2, %106
  %108 = load ptr, ptr %5, align 8, !tbaa !7
  %109 = sext i32 %107 to i64
  %110 = getelementptr inbounds i64, ptr %108, i64 %109
  store ptr %110, ptr %5, align 8, !tbaa !7
  br label %76, !llvm.loop !22

111:                                              ; preds = %76
  store i32 0, ptr %4, align 4
  store i32 1, ptr %11, align 4
  br label %112

112:                                              ; preds = %111, %99
  call void @llvm.lifetime.end.p0(i64 8, ptr %14) #9
  call void @llvm.lifetime.end.p0(i64 4, ptr %13) #9
  call void @llvm.lifetime.end.p0(i64 4, ptr %12) #9
  br label %113

113:                                              ; preds = %112, %66, %17
  %114 = load i32, ptr %4, align 4
  ret i32 %114
}

; Function Attrs: nounwind uwtable
define i64 @Abc_EsopCheck(ptr noundef %0, i32 noundef %1, i64 noundef %2, ptr noundef %3) #0 {
  %5 = alloca i64, align 8
  %6 = alloca ptr, align 8
  %7 = alloca i32, align 4
  %8 = alloca i64, align 8
  %9 = alloca ptr, align 8
  %10 = alloca i32, align 4
  %11 = alloca i64, align 8
  %12 = alloca i32, align 4
  store ptr %0, ptr %6, align 8, !tbaa !7
  store i32 %1, ptr %7, align 4, !tbaa !10
  store i64 %2, ptr %8, align 8, !tbaa !3
  store ptr %3, ptr %9, align 8, !tbaa !12
  call void @llvm.lifetime.start.p0(i64 4, ptr %10) #9
  call void @llvm.lifetime.start.p0(i64 8, ptr %11) #9
  %13 = load i32, ptr %7, align 4, !tbaa !10
  %14 = icmp sle i32 %13, 6
  br i1 %14, label %15, label %22

15:                                               ; preds = %4
  %16 = load ptr, ptr %6, align 8, !tbaa !7
  %17 = load i64, ptr %16, align 8, !tbaa !3
  %18 = load i32, ptr %7, align 4, !tbaa !10
  %19 = load i64, ptr %8, align 8, !tbaa !3
  %20 = load ptr, ptr %9, align 8, !tbaa !12
  %21 = call i64 @Abc_Esop6Cover(i64 noundef %17, i32 noundef %18, i64 noundef %19, ptr noundef %20)
  store i64 %21, ptr %5, align 8
  store i32 1, ptr %12, align 4
  br label %57

22:                                               ; preds = %4
  %23 = load i32, ptr %7, align 4, !tbaa !10
  store i32 %23, ptr %10, align 4, !tbaa !10
  br label %24

24:                                               ; preds = %36, %22
  %25 = load i32, ptr %10, align 4, !tbaa !10
  %26 = icmp sgt i32 %25, 6
  br i1 %26, label %27, label %39

27:                                               ; preds = %24
  %28 = load ptr, ptr %6, align 8, !tbaa !7
  %29 = load i32, ptr %7, align 4, !tbaa !10
  %30 = load i32, ptr %10, align 4, !tbaa !10
  %31 = sub nsw i32 %30, 1
  %32 = call i32 @Abc_TtHasVar(ptr noundef %28, i32 noundef %29, i32 noundef %31)
  %33 = icmp ne i32 %32, 0
  br i1 %33, label %34, label %35

34:                                               ; preds = %27
  br label %39

35:                                               ; preds = %27
  br label %36

36:                                               ; preds = %35
  %37 = load i32, ptr %10, align 4, !tbaa !10
  %38 = add nsw i32 %37, -1
  store i32 %38, ptr %10, align 4, !tbaa !10
  br label %24, !llvm.loop !58

39:                                               ; preds = %34, %24
  %40 = load i32, ptr %10, align 4, !tbaa !10
  %41 = icmp eq i32 %40, 6
  br i1 %41, label %42, label %49

42:                                               ; preds = %39
  %43 = load ptr, ptr %6, align 8, !tbaa !7
  %44 = load i64, ptr %43, align 8, !tbaa !3
  %45 = load i32, ptr %10, align 4, !tbaa !10
  %46 = load i64, ptr %8, align 8, !tbaa !3
  %47 = load ptr, ptr %9, align 8, !tbaa !12
  %48 = call i64 @Abc_Esop6Cover(i64 noundef %44, i32 noundef %45, i64 noundef %46, ptr noundef %47)
  store i64 %48, ptr %11, align 8, !tbaa !3
  br label %55

49:                                               ; preds = %39
  %50 = load ptr, ptr %6, align 8, !tbaa !7
  %51 = load i32, ptr %10, align 4, !tbaa !10
  %52 = load i64, ptr %8, align 8, !tbaa !3
  %53 = load ptr, ptr %9, align 8, !tbaa !12
  %54 = call i64 @Abc_EsopCover(ptr noundef %50, i32 noundef %51, i64 noundef %52, ptr noundef %53)
  store i64 %54, ptr %11, align 8, !tbaa !3
  br label %55

55:                                               ; preds = %49, %42
  %56 = load i64, ptr %11, align 8, !tbaa !3
  store i64 %56, ptr %5, align 8
  store i32 1, ptr %12, align 4
  br label %57

57:                                               ; preds = %55, %15
  call void @llvm.lifetime.end.p0(i64 8, ptr %11) #9
  call void @llvm.lifetime.end.p0(i64 4, ptr %10) #9
  %58 = load i64, ptr %5, align 8
  ret i64 %58
}