; Function Attrs: nofree nosync nounwind memory(readwrite, inaccessiblemem: none) uwtable
define i64 @Abc_EsopCheck(ptr noundef %0, i32 noundef %1, i64 noundef %2, ptr noundef %3) local_unnamed_addr #0 {
  %5 = icmp slt i32 %1, 7
  br i1 %5, label %10, label %.preheader

.preheader:                                       ; preds = %4
  %6 = add nsw i32 %1, -6
  %7 = shl nuw i32 1, %6
  %8 = sext i32 %7 to i64
  %9 = getelementptr inbounds i64, ptr %0, i64 %8
  %.not.i = icmp eq i32 %6, 31
  br i1 %.not.i, label %Abc_TtHasVar.exit.thread, label %.preheader.lr.ph.i

10:                                               ; preds = %4
  %11 = load i64, ptr %0, align 8, !tbaa !3
  %12 = tail call i64 @Abc_Esop6Cover(i64 noundef %11, i32 noundef %1, i64 noundef %2, ptr noundef %3)
  br label %32

.preheader.lr.ph.i:                               ; preds = %.preheader, %.loopexit
  %.02129 = phi i32 [ %13, %.loopexit ], [ %1, %.preheader ]
  %13 = add nsw i32 %.02129, -1
  %14 = add nsw i32 %.02129, -7
  %.not42.i = icmp eq i32 %14, 31
  %15 = shl i32 2, %14
  %16 = sext i32 %15 to i64
  br i1 %.not42.i, label %.loopexit, label %.preheader.us.preheader.i

.preheader.us.preheader.i:                        ; preds = %.preheader.lr.ph.i
  %17 = shl nuw i32 1, %14
  %18 = sext i32 %17 to i64
  %smax.i = tail call i32 @llvm.smax.i32(i32 %17, i32 1)
  %wide.trip.count.i = zext nneg i32 %smax.i to i64
  br label %.preheader.us.i

.preheader.us.i:                                  ; preds = %._crit_edge.us.i, %.preheader.us.preheader.i
  %.03141.us.i = phi ptr [ %24, %._crit_edge.us.i ], [ %0, %.preheader.us.preheader.i ]
  %invariant.gep.i = getelementptr i64, ptr %.03141.us.i, i64 %18
  br label %20

19:                                               ; preds = %20
  %indvars.iv.next.i = add nuw nsw i64 %indvars.iv.i, 1
  %exitcond.not.i = icmp eq i64 %indvars.iv.next.i, %wide.trip.count.i
  br i1 %exitcond.not.i, label %._crit_edge.us.i, label %20, !llvm.loop !13

20:                                               ; preds = %19, %.preheader.us.i
  %indvars.iv.i = phi i64 [ 0, %.preheader.us.i ], [ %indvars.iv.next.i, %19 ]
  %21 = getelementptr inbounds nuw i64, ptr %.03141.us.i, i64 %indvars.iv.i
  %22 = load i64, ptr %21, align 8, !tbaa !3
  %gep.i = getelementptr i64, ptr %invariant.gep.i, i64 %indvars.iv.i
  %23 = load i64, ptr %gep.i, align 8, !tbaa !3
  %.not.us.i = icmp eq i64 %22, %23
  br i1 %.not.us.i, label %19, label %Abc_TtHasVar.exit

._crit_edge.us.i:                                 ; preds = %19
  %24 = getelementptr inbounds i64, ptr %.03141.us.i, i64 %16
  %25 = icmp ult ptr %24, %9
  br i1 %25, label %.preheader.us.i, label %.loopexit, !llvm.loop !14

.loopexit:                                        ; preds = %._crit_edge.us.i, %.preheader.lr.ph.i
  %26 = icmp sgt i32 %.02129, 7
  br i1 %26, label %.preheader.lr.ph.i, label %Abc_TtHasVar.exit.thread, !llvm.loop !50

Abc_TtHasVar.exit:                                ; preds = %20
  %27 = icmp eq i32 %.02129, 6
  br i1 %27, label %Abc_TtHasVar.exit.thread, label %30

Abc_TtHasVar.exit.thread:                         ; preds = %.loopexit, %.preheader, %Abc_TtHasVar.exit
  %28 = load i64, ptr %0, align 8, !tbaa !3
  %29 = tail call i64 @Abc_Esop6Cover(i64 noundef %28, i32 noundef 6, i64 noundef %2, ptr noundef %3)
  br label %32

30:                                               ; preds = %Abc_TtHasVar.exit
  %31 = tail call i64 @Abc_EsopCover(ptr noundef %0, i32 noundef %.02129, i64 noundef %2, ptr noundef %3)
  br label %32

32:                                               ; preds = %Abc_TtHasVar.exit.thread, %30, %10
  %.022 = phi i64 [ %12, %10 ], [ %29, %Abc_TtHasVar.exit.thread ], [ %31, %30 ]
  ret i64 %.022
}